target datalayout = "e-m:e-p270:32:32-p271:32:32-p272:64:64-i64:64-i128:128-f80:128-n8:16:32:64-S128"
target triple = "x86_64-pc-linux-gnu"

%struct.DdManager = type { %struct.DdNode, ptr, ptr, ptr, ptr, ptr, ptr, ptr, i32, i32, double, double, double, i32, i32, i32, i32, i32, i32, ptr, ptr, %struct.DdSubtable, i32, i32, i32, i32, i32, i32, i32, double, i32, i32, i32, ptr, i64, double, i32, ptr, ptr, ptr, ptr, ptr, ptr, ptr, i32, ptr, ptr, ptr, ptr, ptr, ptr, i32, i32, i32, double, i32, i32, i32, i32, double, double, i32, i32, i32, i32, i32, i32, i32, i32, i32, ptr, ptr, i32, i32, i32, i32, i32, i32, ptr, ptr, ptr, ptr, ptr, ptr, ptr, ptr, i32, i64, i64, i64, i32, i64, i64, double, double, double, double, double, double, i32, ptr, ptr, i64 }
%struct.DdNode = type { i32, i32, ptr, %union.anon, i64 }
%union.anon = type { %struct.DdChildren }
%struct.DdChildren = type { ptr, ptr }
%struct.DdSubtable = type { ptr, i32, i32, i32, i32, i32, i32, i32, i32, i32, i32, i32 }

; Function Attrs: nounwind uwtable
define internal i32 @ddPickArbitraryMinterms(ptr noundef %0, ptr noundef %1, i32 noundef %2, i32 noundef %3, ptr noundef %4) #0 {
  %6 = alloca i32, align 4
  %7 = alloca ptr, align 8
  %8 = alloca ptr, align 8
  %9 = alloca i32, align 4
  %10 = alloca i32, align 4
  %11 = alloca ptr, align 8
  %12 = alloca ptr, align 8
  %13 = alloca ptr, align 8
  %14 = alloca ptr, align 8
  %15 = alloca ptr, align 8
  %16 = alloca ptr, align 8
  %17 = alloca i32, align 4
  %18 = alloca i32, align 4
  %19 = alloca i32, align 4
  %20 = alloca double, align 8
  %21 = alloca double, align 8
  store ptr %0, ptr %7, align 8
  store ptr %1, ptr %8, align 8
  store i32 %2, ptr %9, align 4
  store i32 %3, ptr %10, align 4
  store ptr %4, ptr %11, align 8
  %22 = load ptr, ptr %11, align 8
  %23 = icmp eq ptr %22, null
  br i1 %23, label %27, label %24

24:                                               ; preds = %5
  %25 = load ptr, ptr %8, align 8
  %26 = icmp eq ptr %25, null
  br i1 %26, label %27, label %28

27:                                               ; preds = %24, %5
  store i32 0, ptr %6, align 4
  br label %166

28:                                               ; preds = %24
  %29 = load ptr, ptr %7, align 8
  %30 = getelementptr inbounds %struct.DdManager, ptr %29, i32 0, i32 1
  %31 = load ptr, ptr %30, align 8
  store ptr %31, ptr %15, align 8
  %32 = load ptr, ptr %15, align 8
  %33 = ptrtoint ptr %32 to i64
  %34 = xor i64 %33, 1
  %35 = inttoptr i64 %34 to ptr
  store ptr %35, ptr %16, align 8
  %36 = load i32, ptr %10, align 4
  %37 = icmp eq i32 %36, 0
  br i1 %37, label %42, label %38

38:                                               ; preds = %28
  %39 = load ptr, ptr %8, align 8
  %40 = load ptr, ptr %16, align 8
  %41 = icmp eq ptr %39, %40
  br i1 %41, label %42, label %43

42:                                               ; preds = %38, %28
  store i32 1, ptr %6, align 4
  br label %166

43:                                               ; preds = %38
  %44 = load ptr, ptr %8, align 8
  %45 = load ptr, ptr %15, align 8
  %46 = icmp eq ptr %44, %45
  br i1 %46, label %47, label %48

47:                                               ; preds = %43
  store i32 1, ptr %6, align 4
  br label %166

48:                                               ; preds = %43
  %49 = load ptr, ptr %8, align 8
  %50 = ptrtoint ptr %49 to i64
  %51 = and i64 %50, -2
  %52 = inttoptr i64 %51 to ptr
  store ptr %52, ptr %12, align 8
  %53 = load ptr, ptr %12, align 8
  %54 = getelementptr inbounds %struct.DdNode, ptr %53, i32 0, i32 3
  %55 = getelementptr inbounds %struct.DdChildren, ptr %54, i32 0, i32 0
  %56 = load ptr, ptr %55, align 8
  store ptr %56, ptr %13, align 8
  %57 = load ptr, ptr %12, align 8
  %58 = getelementptr inbounds %struct.DdNode, ptr %57, i32 0, i32 3
  %59 = getelementptr inbounds %struct.DdChildren, ptr %58, i32 0, i32 1
  %60 = load ptr, ptr %59, align 8
  store ptr %60, ptr %14, align 8
  %61 = load ptr, ptr %8, align 8
  %62 = ptrtoint ptr %61 to i64
  %63 = and i64 %62, 1
  %64 = trunc i64 %63 to i32
  %65 = icmp ne i32 %64, 0
  br i1 %65, label %66, label %75

66:                                               ; preds = %48
  %67 = load ptr, ptr %13, align 8
  %68 = ptrtoint ptr %67 to i64
  %69 = xor i64 %68, 1
  %70 = inttoptr i64 %69 to ptr
  store ptr %70, ptr %13, align 8
  %71 = load ptr, ptr %14, align 8
  %72 = ptrtoint ptr %71 to i64
  %73 = xor i64 %72, 1
  %74 = inttoptr i64 %73 to ptr
  store ptr %74, ptr %14, align 8
  br label %75

75:                                               ; preds = %66, %48
  %76 = load ptr, ptr %7, align 8
  %77 = load ptr, ptr %13, align 8
  %78 = load i32, ptr %9, align 4
  %79 = call double @Cudd_CountMinterm(ptr noundef %76, ptr noundef %77, i32 noundef %78)
  %80 = fdiv double %79, 2.000000e+00
  store double %80, ptr %20, align 8
  %81 = load double, ptr %20, align 8
  %82 = fcmp oeq double %81, -1.000000e+00
  br i1 %82, label %83, label %84

83:                                               ; preds = %75
  store i32 0, ptr %6, align 4
  br label %166

84:                                               ; preds = %75
  %85 = load ptr, ptr %7, align 8
  %86 = load ptr, ptr %14, align 8
  %87 = load i32, ptr %9, align 4
  %88 = call double @Cudd_CountMinterm(ptr noundef %85, ptr noundef %86, i32 noundef %87)
  %89 = fdiv double %88, 2.000000e+00
  store double %89, ptr %21, align 8
  %90 = load double, ptr %21, align 8
  %91 = fcmp oeq double %90, -1.000000e+00
  br i1 %91, label %92, label %93

92:                                               ; preds = %84
  store i32 0, ptr %6, align 4
  br label %166

93:                                               ; preds = %84
  %94 = load i32, ptr %10, align 4
  %95 = sitofp i32 %94 to double
  %96 = load double, ptr %20, align 8
  %97 = fmul double %95, %96
  %98 = load double, ptr %20, align 8
  %99 = load double, ptr %21, align 8
  %100 = fadd double %98, %99
  %101 = fdiv double %97, %100
  %102 = fadd double %101, 5.000000e-01
  %103 = fptosi double %102 to i32
  store i32 %103, ptr %18, align 4
  store i32 0, ptr %17, align 4
  br label %104

104:                                              ; preds = %119, %93
  %105 = load i32, ptr %17, align 4
  %106 = load i32, ptr %18, align 4
  %107 = icmp slt i32 %105, %106
  br i1 %107, label %108, label %122

108:                                              ; preds = %104
  %109 = load ptr, ptr %11, align 8
  %110 = load i32, ptr %17, align 4
  %111 = sext i32 %110 to i64
  %112 = getelementptr inbounds ptr, ptr %109, i64 %111
  %113 = load ptr, ptr %112, align 8
  %114 = load ptr, ptr %12, align 8
  %115 = getelementptr inbounds %struct.DdNode, ptr %114, i32 0, i32 0
  %116 = load i32, ptr %115, align 8
  %117 = zext i32 %116 to i64
  %118 = getelementptr inbounds i8, ptr %113, i64 %117
  store i8 49, ptr %118, align 1
  br label %119

119:                                              ; preds = %108
  %120 = load i32, ptr %17, align 4
  %121 = add nsw i32 %120, 1
  store i32 %121, ptr %17, align 4
  br label %104, !llvm.loop !57

122:                                              ; preds = %104
  %123 = load i32, ptr %18, align 4
  store i32 %123, ptr %17, align 4
  br label %124

124:                                              ; preds = %139, %122
  %125 = load i32, ptr %17, align 4
  %126 = load i32, ptr %10, align 4
  %127 = icmp slt i32 %125, %126
  br i1 %127, label %128, label %142

128:                                              ; preds = %124
  %129 = load ptr, ptr %11, align 8
  %130 = load i32, ptr %17, align 4
  %131 = sext i32 %130 to i64
  %132 = getelementptr inbounds ptr, ptr %129, i64 %131
  %133 = load ptr, ptr %132, align 8
  %134 = load ptr, ptr %12, align 8
  %135 = getelementptr inbounds %struct.DdNode, ptr %134, i32 0, i32 0
  %136 = load i32, ptr %135, align 8
  %137 = zext i32 %136 to i64
  %138 = getelementptr inbounds i8, ptr %133, i64 %137
  store i8 48, ptr %138, align 1
  br label %139

139:                                              ; preds = %128
  %140 = load i32, ptr %17, align 4
  %141 = add nsw i32 %140, 1
  store i32 %141, ptr %17, align 4
  br label %124, !llvm.loop !58

142:                                              ; preds = %124
  %143 = load ptr, ptr %7, align 8
  %144 = load ptr, ptr %13, align 8
  %145 = load i32, ptr %9, align 4
  %146 = load i32, ptr %18, align 4
  %147 = load ptr, ptr %11, align 8
  %148 = getelementptr inbounds ptr, ptr %147, i64 0
  %149 = call i32 @ddPickArbitraryMinterms(ptr noundef %143, ptr noundef %144, i32 noundef %145, i32 noundef %146, ptr noundef %148)
  store i32 %149, ptr %19, align 4
  %150 = load i32, ptr %19, align 4
  %151 = icmp eq i32 %150, 0
  br i1 %151, label %152, label %153

152:                                              ; preds = %142
  store i32 0, ptr %6, align 4
  br label %166

153:                                              ; preds = %142
  %154 = load ptr, ptr %7, align 8
  %155 = load ptr, ptr %14, align 8
  %156 = load i32, ptr %9, align 4
  %157 = load i32, ptr %10, align 4
  %158 = load i32, ptr %18, align 4
  %159 = sub nsw i32 %157, %158
  %160 = load ptr, ptr %11, align 8
  %161 = load i32, ptr %18, align 4
  %162 = sext i32 %161 to i64
  %163 = getelementptr inbounds ptr, ptr %160, i64 %162
  %164 = call i32 @ddPickArbitraryMinterms(ptr noundef %154, ptr noundef %155, i32 noundef %156, i32 noundef %159, ptr noundef %163)
  store i32 %164, ptr %19, align 4
  %165 = load i32, ptr %19, align 4
  store i32 %165, ptr %6, align 4
  br label %166

166:                                              ; preds = %153, %152, %92, %83, %47, %42, %27
  %167 = load i32, ptr %6, align 4
  ret i32 %167
}