; Function Attrs: nounwind uwtable
define internal fastcc range(i32 0, 2) i32 @ddPickArbitraryMinterms(ptr noundef %0, ptr noundef %1, i32 noundef %2, i32 noundef %3, ptr noundef nonnull readonly captures(none) %4) unnamed_addr #0 {
  %6 = icmp eq ptr %1, null
  br i1 %6, label %._crit_edge80, label %.lr.ph79

.lr.ph79:                                         ; preds = %5
  %7 = getelementptr inbounds nuw i8, ptr %0, i64 40
  br label %8

8:                                                ; preds = %.lr.ph79, %tailrecurse
  %.tr7177 = phi ptr [ %4, %.lr.ph79 ], [ %62, %tailrecurse ]
  %.tr7076 = phi i32 [ %3, %.lr.ph79 ], [ %60, %tailrecurse ]
  %.tr6875 = phi ptr [ %1, %.lr.ph79 ], [ %.056, %tailrecurse ]
  %9 = load ptr, ptr %7, align 8
  %10 = icmp eq i32 %.tr7076, 0
  %11 = ptrtoint ptr %9 to i64
  %12 = xor i64 %11, 1
  %13 = inttoptr i64 %12 to ptr
  %14 = icmp eq ptr %.tr6875, %13
  %or.cond = select i1 %10, i1 true, i1 %14
  %15 = icmp eq ptr %.tr6875, %9
  %or.cond67 = select i1 %or.cond, i1 true, i1 %15
  br i1 %or.cond67, label %._crit_edge80, label %16

16:                                               ; preds = %8
  %17 = ptrtoint ptr %.tr6875 to i64
  %18 = and i64 %17, -2
  %19 = inttoptr i64 %18 to ptr
  %20 = getelementptr inbounds nuw i8, ptr %19, i64 16
  %21 = load ptr, ptr %20, align 8
  %22 = getelementptr inbounds nuw i8, ptr %19, i64 24
  %23 = load ptr, ptr %22, align 8
  %24 = and i64 %17, 1
  %.not = icmp eq i64 %24, 0
  %25 = ptrtoint ptr %21 to i64
  %26 = xor i64 %25, 1
  %27 = inttoptr i64 %26 to ptr
  %28 = ptrtoint ptr %23 to i64
  %29 = xor i64 %28, 1
  %30 = inttoptr i64 %29 to ptr
  %.056 = select i1 %.not, ptr %23, ptr %30
  %.055 = select i1 %.not, ptr %21, ptr %27
  %31 = tail call double @Cudd_CountMinterm(ptr noundef nonnull %0, ptr noundef %.055, i32 noundef %2)
  %32 = fmul double %31, 5.000000e-01
  %33 = fcmp oeq double %32, -1.000000e+00
  br i1 %33, label %._crit_edge80, label %34

34:                                               ; preds = %16
  %35 = tail call double @Cudd_CountMinterm(ptr noundef nonnull %0, ptr noundef %.056, i32 noundef %2)
  %36 = fmul double %35, 5.000000e-01
  %37 = fcmp oeq double %36, -1.000000e+00
  br i1 %37, label %._crit_edge80, label %38

38:                                               ; preds = %34
  %39 = sitofp i32 %.tr7076 to double
  %40 = fmul double %32, %39
  %41 = fadd double %32, %36
  %42 = fdiv double %40, %41
  %43 = fadd double %42, 5.000000e-01
  %44 = fptosi double %43 to i32
  %45 = icmp sgt i32 %44, 0
  br i1 %45, label %.lr.ph.preheader, label %.preheader

.lr.ph.preheader:                                 ; preds = %38
  %wide.trip.count = zext nneg i32 %44 to i64
  br label %.lr.ph

.preheader:                                       ; preds = %.lr.ph, %38
  %46 = icmp sgt i32 %.tr7076, %44
  br i1 %46, label %.lr.ph74.preheader, label %._crit_edge

.lr.ph74.preheader:                               ; preds = %.preheader
  %47 = sext i32 %44 to i64
  %wide.trip.count92 = sext i32 %.tr7076 to i64
  br label %.lr.ph74

.lr.ph:                                           ; preds = %.lr.ph.preheader, %.lr.ph
  %indvars.iv = phi i64 [ 0, %.lr.ph.preheader ], [ %indvars.iv.next, %.lr.ph ]
  %48 = getelementptr inbounds nuw ptr, ptr %.tr7177, i64 %indvars.iv
  %49 = load ptr, ptr %48, align 8
  %50 = load i32, ptr %19, align 8
  %51 = zext i32 %50 to i64
  %52 = getelementptr inbounds nuw i8, ptr %49, i64 %51
  store i8 49, ptr %52, align 1
  %indvars.iv.next = add nuw nsw i64 %indvars.iv, 1
  %exitcond.not = icmp eq i64 %indvars.iv.next, %wide.trip.count
  br i1 %exitcond.not, label %.preheader, label %.lr.ph, !llvm.loop !51

.lr.ph74:                                         ; preds = %.lr.ph74.preheader, %.lr.ph74
  %indvars.iv89 = phi i64 [ %47, %.lr.ph74.preheader ], [ %indvars.iv.next90, %.lr.ph74 ]
  %53 = getelementptr inbounds ptr, ptr %.tr7177, i64 %indvars.iv89
  %54 = load ptr, ptr %53, align 8
  %55 = load i32, ptr %19, align 8
  %56 = zext i32 %55 to i64
  %57 = getelementptr inbounds nuw i8, ptr %54, i64 %56
  store i8 48, ptr %57, align 1
  %indvars.iv.next90 = add nsw i64 %indvars.iv89, 1
  %exitcond93.not = icmp eq i64 %indvars.iv.next90, %wide.trip.count92
  br i1 %exitcond93.not, label %._crit_edge, label %.lr.ph74, !llvm.loop !52

._crit_edge:                                      ; preds = %.lr.ph74, %.preheader
  %58 = tail call fastcc i32 @ddPickArbitraryMinterms(ptr noundef nonnull %0, ptr noundef %.055, i32 noundef %2, i32 noundef %44, ptr noundef %.tr7177)
  %59 = icmp eq i32 %58, 0
  br i1 %59, label %._crit_edge80, label %tailrecurse

tailrecurse:                                      ; preds = %._crit_edge
  %60 = sub nsw i32 %.tr7076, %44
  %61 = sext i32 %44 to i64
  %62 = getelementptr inbounds ptr, ptr %.tr7177, i64 %61
  %63 = icmp eq ptr %.056, null
  br i1 %63, label %._crit_edge80, label %8

._crit_edge80:                                    ; preds = %tailrecurse, %8, %16, %34, %._crit_edge, %5
  %.0 = phi i32 [ 0, %5 ], [ 0, %._crit_edge ], [ 0, %34 ], [ 0, %16 ], [ 1, %8 ], [ 0, %tailrecurse ]
  ret i32 %.0
}